; Function Attrs: mustprogress nofree norecurse nosync nounwind willreturn memory(argmem: readwrite) uwtable
define dso_local void @_ZN3net9QuicAlarmC2ENS_18QuicArenaScopedPtrINS0_8DelegateEEE(ptr nocapture noundef nonnull writeonly align 8 dereferenceable(24) %this, ptr nocapture noundef %delegate) unnamed_addr #0 align 2 personality ptr @__gxx_personality_v0 {
invoke.cont:
  store ptr getelementptr inbounds ({ [7 x ptr] }, ptr @_ZTVN3net9QuicAlarmE, i64 0, i32 0, i64 2), ptr %this, align 8
  %delegate_ = getelementptr inbounds i8, ptr %this, i64 8
  %0 = load ptr, ptr %delegate, align 8
  store ptr %0, ptr %delegate_, align 8
  store ptr null, ptr %delegate, align 8
  %deadline_ = getelementptr inbounds i8, ptr %this, i64 16
  store i64 0, ptr %deadline_, align 8
  ret void
}